target datalayout = "e-m:e-p270:32:32-p271:32:32-p272:64:64-i64:64-i128:128-f80:128-n8:16:32:64-S128"
target triple = "x86_64-pc-linux-gnu"

%struct.MJpegDecodeContext = type { ptr, ptr, %struct.GetBitContext, i32, i32, i32, ptr, [4 x [64 x i16]], [3 x [4 x %struct.VLC]], [4 x i32], i32, i32, i32, i32, i32, i32, i32, i32, i32, [4 x i8], [4 x i8], i32, i32, i32, i32, i32, i32, i32, i32, i32, i32, i32, i32, i32, i32, i32, i32, i32, [4 x i32], [4 x i32], [4 x i32], [4 x i32], [4 x i32], [4 x i32], [4 x i32], [4 x i32], [4 x i32], [4 x i32], [4 x i32], i32, i32, [4 x i32], [4 x i32], ptr, ptr, i32, [4 x i32], ptr, [64 x i16], [4 x ptr], [4 x ptr], [4 x i64], i32, i32, [64 x i8], %struct.BlockDSPContext, %struct.HpelDSPContext, %struct.IDCTDSPContext, i32, i32, i32, i32, i32, i32, i32, i32, i32, ptr, i32, i32, ptr, ptr, ptr, ptr, i32, i32, ptr, i32, i32, ptr, i64, ptr, i64, [2 x [4 x [16 x i8]]], [2 x [4 x [256 x i8]]], i32, i32, ptr, ptr, [8 x i8] }
%struct.GetBitContext = type { ptr, ptr, i32, i32, i32 }
%struct.VLC = type { i32, ptr, i32, i32 }
%struct.BlockDSPContext = type { ptr, ptr, [2 x ptr] }
%struct.HpelDSPContext = type { [4 x [4 x ptr]], [4 x [4 x ptr]], [4 x [4 x ptr]], [4 x ptr] }
%struct.IDCTDSPContext = type { ptr, ptr, ptr, ptr, ptr, ptr, [64 x i8], i32, i32 }
%struct.anon = type { i32, i32, ptr, ptr, i32 }

; Function Attrs: nounwind uwtable
define internal i32 @init_default_huffman_tables(ptr noundef %0) #3 {
  %2 = alloca i32, align 4
  %3 = alloca ptr, align 8
  %4 = alloca i32, align 4
  %5 = alloca i32, align 4
  %6 = alloca i32, align 4
  store ptr %0, ptr %3, align 8, !tbaa !29
  call void @llvm.lifetime.start.p0(i64 4, ptr %4) #13
  call void @llvm.lifetime.start.p0(i64 4, ptr %5) #13
  store i32 0, ptr %4, align 4, !tbaa !57
  br label %7

7:                                                ; preds = %129, %1
  %8 = load i32, ptr %4, align 4, !tbaa !57
  %9 = sext i32 %8 to i64
  %10 = icmp ult i64 %9, 6
  br i1 %10, label %11, label %132

11:                                               ; preds = %7
  %12 = load ptr, ptr %3, align 8, !tbaa !29
  %13 = getelementptr inbounds nuw %struct.MJpegDecodeContext, ptr %12, i32 0, i32 8
  %14 = load i32, ptr %4, align 4, !tbaa !57
  %15 = sext i32 %14 to i64
  %16 = getelementptr inbounds [6 x %struct.anon], ptr @init_default_huffman_tables.ht, i64 0, i64 %15
  %17 = getelementptr inbounds nuw %struct.anon, ptr %16, i32 0, i32 0
  %18 = load i32, ptr %17, align 16, !tbaa !75
  %19 = sext i32 %18 to i64
  %20 = getelementptr inbounds [3 x [4 x %struct.VLC]], ptr %13, i64 0, i64 %19
  %21 = load i32, ptr %4, align 4, !tbaa !57
  %22 = sext i32 %21 to i64
  %23 = getelementptr inbounds [6 x %struct.anon], ptr @init_default_huffman_tables.ht, i64 0, i64 %22
  %24 = getelementptr inbounds nuw %struct.anon, ptr %23, i32 0, i32 1
  %25 = load i32, ptr %24, align 4, !tbaa !77
  %26 = sext i32 %25 to i64
  %27 = getelementptr inbounds [4 x %struct.VLC], ptr %20, i64 0, i64 %26
  call void @ff_vlc_free(ptr noundef %27)
  %28 = load ptr, ptr %3, align 8, !tbaa !29
  %29 = getelementptr inbounds nuw %struct.MJpegDecodeContext, ptr %28, i32 0, i32 8
  %30 = load i32, ptr %4, align 4, !tbaa !57
  %31 = sext i32 %30 to i64
  %32 = getelementptr inbounds [6 x %struct.anon], ptr @init_default_huffman_tables.ht, i64 0, i64 %31
  %33 = getelementptr inbounds nuw %struct.anon, ptr %32, i32 0, i32 0
  %34 = load i32, ptr %33, align 16, !tbaa !75
  %35 = sext i32 %34 to i64
  %36 = getelementptr inbounds [3 x [4 x %struct.VLC]], ptr %29, i64 0, i64 %35
  %37 = load i32, ptr %4, align 4, !tbaa !57
  %38 = sext i32 %37 to i64
  %39 = getelementptr inbounds [6 x %struct.anon], ptr @init_default_huffman_tables.ht, i64 0, i64 %38
  %40 = getelementptr inbounds nuw %struct.anon, ptr %39, i32 0, i32 1
  %41 = load i32, ptr %40, align 4, !tbaa !77
  %42 = sext i32 %41 to i64
  %43 = getelementptr inbounds [4 x %struct.VLC], ptr %36, i64 0, i64 %42
  %44 = load i32, ptr %4, align 4, !tbaa !57
  %45 = sext i32 %44 to i64
  %46 = getelementptr inbounds [6 x %struct.anon], ptr @init_default_huffman_tables.ht, i64 0, i64 %45
  %47 = getelementptr inbounds nuw %struct.anon, ptr %46, i32 0, i32 2
  %48 = load ptr, ptr %47, align 8, !tbaa !78
  %49 = load i32, ptr %4, align 4, !tbaa !57
  %50 = sext i32 %49 to i64
  %51 = getelementptr inbounds [6 x %struct.anon], ptr @init_default_huffman_tables.ht, i64 0, i64 %50
  %52 = getelementptr inbounds nuw %struct.anon, ptr %51, i32 0, i32 3
  %53 = load ptr, ptr %52, align 16, !tbaa !79
  %54 = load i32, ptr %4, align 4, !tbaa !57
  %55 = sext i32 %54 to i64
  %56 = getelementptr inbounds [6 x %struct.anon], ptr @init_default_huffman_tables.ht, i64 0, i64 %55
  %57 = getelementptr inbounds nuw %struct.anon, ptr %56, i32 0, i32 0
  %58 = load i32, ptr %57, align 16, !tbaa !75
  %59 = icmp eq i32 %58, 1
  %60 = zext i1 %59 to i32
  %61 = load ptr, ptr %3, align 8, !tbaa !29
  %62 = getelementptr inbounds nuw %struct.MJpegDecodeContext, ptr %61, i32 0, i32 1
  %63 = load ptr, ptr %62, align 8, !tbaa !44
  %64 = call i32 @ff_mjpeg_build_vlc(ptr noundef %43, ptr noundef %48, ptr noundef %53, i32 noundef %60, ptr noundef %63)
  store i32 %64, ptr %5, align 4, !tbaa !57
  %65 = load i32, ptr %5, align 4, !tbaa !57
  %66 = icmp slt i32 %65, 0
  br i1 %66, label %67, label %69

67:                                               ; preds = %11
  %68 = load i32, ptr %5, align 4, !tbaa !57
  store i32 %68, ptr %2, align 4
  store i32 1, ptr %6, align 4
  br label %133

69:                                               ; preds = %11
  %70 = load i32, ptr %4, align 4, !tbaa !57
  %71 = sext i32 %70 to i64
  %72 = getelementptr inbounds [6 x %struct.anon], ptr @init_default_huffman_tables.ht, i64 0, i64 %71
  %73 = getelementptr inbounds nuw %struct.anon, ptr %72, i32 0, i32 0
  %74 = load i32, ptr %73, align 16, !tbaa !75
  %75 = icmp slt i32 %74, 2
  br i1 %75, label %76, label %128

76:                                               ; preds = %69
  %77 = load ptr, ptr %3, align 8, !tbaa !29
  %78 = getelementptr inbounds nuw %struct.MJpegDecodeContext, ptr %77, i32 0, i32 93
  %79 = load i32, ptr %4, align 4, !tbaa !57
  %80 = sext i32 %79 to i64
  %81 = getelementptr inbounds [6 x %struct.anon], ptr @init_default_huffman_tables.ht, i64 0, i64 %80
  %82 = getelementptr inbounds nuw %struct.anon, ptr %81, i32 0, i32 0
  %83 = load i32, ptr %82, align 16, !tbaa !75
  %84 = sext i32 %83 to i64
  %85 = getelementptr inbounds [2 x [4 x [16 x i8]]], ptr %78, i64 0, i64 %84
  %86 = load i32, ptr %4, align 4, !tbaa !57
  %87 = sext i32 %86 to i64
  %88 = getelementptr inbounds [6 x %struct.anon], ptr @init_default_huffman_tables.ht, i64 0, i64 %87
  %89 = getelementptr inbounds nuw %struct.anon, ptr %88, i32 0, i32 1
  %90 = load i32, ptr %89, align 4, !tbaa !77
  %91 = sext i32 %90 to i64
  %92 = getelementptr inbounds [4 x [16 x i8]], ptr %85, i64 0, i64 %91
  %93 = getelementptr inbounds [16 x i8], ptr %92, i64 0, i64 0
  %94 = load i32, ptr %4, align 4, !tbaa !57
  %95 = sext i32 %94 to i64
  %96 = getelementptr inbounds [6 x %struct.anon], ptr @init_default_huffman_tables.ht, i64 0, i64 %95
  %97 = getelementptr inbounds nuw %struct.anon, ptr %96, i32 0, i32 2
  %98 = load ptr, ptr %97, align 8, !tbaa !78
  %99 = getelementptr inbounds i8, ptr %98, i64 1
  call void @llvm.memcpy.p0.p0.i64(ptr align 16 %93, ptr align 1 %99, i64 16, i1 false)
  %100 = load ptr, ptr %3, align 8, !tbaa !29
  %101 = getelementptr inbounds nuw %struct.MJpegDecodeContext, ptr %100, i32 0, i32 94
  %102 = load i32, ptr %4, align 4, !tbaa !57
  %103 = sext i32 %102 to i64
  %104 = getelementptr inbounds [6 x %struct.anon], ptr @init_default_huffman_tables.ht, i64 0, i64 %103
  %105 = getelementptr inbounds nuw %struct.anon, ptr %104, i32 0, i32 0
  %106 = load i32, ptr %105, align 16, !tbaa !75
  %107 = sext i32 %106 to i64
  %108 = getelementptr inbounds [2 x [4 x [256 x i8]]], ptr %101, i64 0, i64 %107
  %109 = load i32, ptr %4, align 4, !tbaa !57
  %110 = sext i32 %109 to i64
  %111 = getelementptr inbounds [6 x %struct.anon], ptr @init_default_huffman_tables.ht, i64 0, i64 %110
  %112 = getelementptr inbounds nuw %struct.anon, ptr %111, i32 0, i32 1
  %113 = load i32, ptr %112, align 4, !tbaa !77
  %114 = sext i32 %113 to i64
  %115 = getelementptr inbounds [4 x [256 x i8]], ptr %108, i64 0, i64 %114
  %116 = getelementptr inbounds [256 x i8], ptr %115, i64 0, i64 0
  %117 = load i32, ptr %4, align 4, !tbaa !57
  %118 = sext i32 %117 to i64
  %119 = getelementptr inbounds [6 x %struct.anon], ptr @init_default_huffman_tables.ht, i64 0, i64 %118
  %120 = getelementptr inbounds nuw %struct.anon, ptr %119, i32 0, i32 3
  %121 = load ptr, ptr %120, align 16, !tbaa !79
  %122 = load i32, ptr %4, align 4, !tbaa !57
  %123 = sext i32 %122 to i64
  %124 = getelementptr inbounds [6 x %struct.anon], ptr @init_default_huffman_tables.ht, i64 0, i64 %123
  %125 = getelementptr inbounds nuw %struct.anon, ptr %124, i32 0, i32 4
  %126 = load i32, ptr %125, align 8, !tbaa !80
  %127 = sext i32 %126 to i64
  call void @llvm.memcpy.p0.p0.i64(ptr align 16 %116, ptr align 1 %121, i64 %127, i1 false)
  br label %128

128:                                              ; preds = %76, %69
  br label %129

129:                                              ; preds = %128
  %130 = load i32, ptr %4, align 4, !tbaa !57
  %131 = add nsw i32 %130, 1
  store i32 %131, ptr %4, align 4, !tbaa !57
  br label %7, !llvm.loop !81

132:                                              ; preds = %7
  store i32 0, ptr %2, align 4
  store i32 1, ptr %6, align 4
  br label %133

133:                                              ; preds = %132, %67
  call void @llvm.lifetime.end.p0(i64 4, ptr %5) #13
  call void @llvm.lifetime.end.p0(i64 4, ptr %4) #13
  %134 = load i32, ptr %2, align 4
  ret i32 %134
}