; Function Attrs: nounwind uwtable
define internal fastcc range(i32 -2147483648, 1) i32 @init_default_huffman_tables(ptr noundef %0) unnamed_addr #3 {
  %2 = getelementptr inbounds nuw i8, ptr %0, i64 584
  %3 = getelementptr inbounds nuw i8, ptr %0, i64 8
  %4 = getelementptr inbounds nuw i8, ptr %0, i64 2272
  %5 = getelementptr inbounds nuw i8, ptr %0, i64 2400
  br label %6

6:                                                ; preds = %1, %32
  %indvars.iv = phi i64 [ 0, %1 ], [ %indvars.iv.next, %32 ]
  %7 = getelementptr inbounds nuw [6 x %struct.anon], ptr @init_default_huffman_tables.ht, i64 0, i64 %indvars.iv
  %8 = load i32, ptr %7, align 16, !tbaa !76
  %9 = sext i32 %8 to i64
  %10 = getelementptr inbounds nuw i8, ptr %7, i64 4
  %11 = load i32, ptr %10, align 4, !tbaa !78
  %12 = sext i32 %11 to i64
  %13 = getelementptr inbounds [3 x [4 x %struct.VLC]], ptr %2, i64 0, i64 %9, i64 %12
  tail call void @ff_vlc_free(ptr noundef nonnull %13) #14
  %14 = getelementptr inbounds nuw i8, ptr %7, i64 8
  %15 = load ptr, ptr %14, align 8, !tbaa !79
  %16 = getelementptr inbounds nuw i8, ptr %7, i64 16
  %17 = load ptr, ptr %16, align 16, !tbaa !80
  %18 = icmp eq i32 %8, 1
  %19 = zext i1 %18 to i32
  %20 = load ptr, ptr %3, align 8, !tbaa !41
  %21 = tail call i32 @ff_mjpeg_build_vlc(ptr noundef nonnull %13, ptr noundef %15, ptr noundef %17, i32 noundef %19, ptr noundef %20) #14
  %22 = icmp slt i32 %21, 0
  br i1 %22, label %33, label %23

23:                                               ; preds = %6
  %24 = icmp slt i32 %8, 2
  br i1 %24, label %25, label %32

25:                                               ; preds = %23
  %26 = getelementptr inbounds [2 x [4 x [16 x i8]]], ptr %4, i64 0, i64 %9, i64 %12
  %27 = getelementptr inbounds nuw i8, ptr %15, i64 1
  tail call void @llvm.memcpy.p0.p0.i64(ptr noundef nonnull align 16 dereferenceable(16) %26, ptr noundef nonnull align 1 dereferenceable(16) %27, i64 16, i1 false)
  %28 = getelementptr inbounds [2 x [4 x [256 x i8]]], ptr %5, i64 0, i64 %9, i64 %12
  %29 = getelementptr inbounds nuw i8, ptr %7, i64 24
  %30 = load i32, ptr %29, align 8, !tbaa !81
  %31 = sext i32 %30 to i64
  tail call void @llvm.memcpy.p0.p0.i64(ptr nonnull align 16 %28, ptr align 1 %17, i64 %31, i1 false)
  br label %32

32:                                               ; preds = %23, %25
  %indvars.iv.next = add nuw nsw i64 %indvars.iv, 1
  %exitcond.not = icmp eq i64 %indvars.iv.next, 6
  br i1 %exitcond.not, label %33, label %6, !llvm.loop !82

33:                                               ; preds = %32, %6
  %.0 = phi i32 [ %21, %6 ], [ 0, %32 ]
  ret i32 %.0
}